target datalayout = "e-m:e-p270:32:32-p271:32:32-p272:64:64-i64:64-i128:128-f80:128-n8:16:32:64-S128"
target triple = "x86_64-unknown-linux-gnu"

%"class.QuantLib::BlackCalculator" = type { ptr, double, double, double, double, double, double, double, double, double, double, double, double, double, double, double, double, double, double }

; Function Attrs: mustprogress nounwind uwtable
define noundef double @_ZNK8QuantLib15BlackCalculator11strikeGammaEv(ptr noundef nonnull align 8 dereferenceable(152) %this) #6 align 2 {
entry:
  %this.addr = alloca ptr, align 8
  %temp = alloca double, align 8
  %DalphaDstrike = alloca double, align 8
  %DbetaDstrike = alloca double, align 8
  %D2alphaD2strike = alloca double, align 8
  %D2betaD2strike = alloca double, align 8
  %temp2 = alloca double, align 8
  store ptr %this, ptr %this.addr, align 8, !tbaa !3
  %this1 = load ptr, ptr %this.addr, align 8
  call void @llvm.lifetime.start.p0(i64 8, ptr %temp) #19
  %stdDev_ = getelementptr inbounds nuw %"class.QuantLib::BlackCalculator", ptr %this1, i32 0, i32 3
  %0 = load double, ptr %stdDev_, align 8, !tbaa !14
  %strike_ = getelementptr inbounds nuw %"class.QuantLib::BlackCalculator", ptr %this1, i32 0, i32 1
  %1 = load double, ptr %strike_, align 8, !tbaa !11
  %mul = fmul double %0, %1
  store double %mul, ptr %temp, align 8, !tbaa !9
  call void @llvm.lifetime.start.p0(i64 8, ptr %DalphaDstrike) #19
  %DalphaDd1_ = getelementptr inbounds nuw %"class.QuantLib::BlackCalculator", ptr %this1, i32 0, i32 10
  %2 = load double, ptr %DalphaDd1_, align 8, !tbaa !37
  %fneg = fneg double %2
  %3 = load double, ptr %temp, align 8, !tbaa !9
  %div = fdiv double %fneg, %3
  store double %div, ptr %DalphaDstrike, align 8, !tbaa !9
  call void @llvm.lifetime.start.p0(i64 8, ptr %DbetaDstrike) #19
  %DbetaDd2_ = getelementptr inbounds nuw %"class.QuantLib::BlackCalculator", ptr %this1, i32 0, i32 11
  %4 = load double, ptr %DbetaDd2_, align 8, !tbaa !39
  %fneg2 = fneg double %4
  %5 = load double, ptr %temp, align 8, !tbaa !9
  %div3 = fdiv double %fneg2, %5
  store double %div3, ptr %DbetaDstrike, align 8, !tbaa !9
  call void @llvm.lifetime.start.p0(i64 8, ptr %D2alphaD2strike) #19
  %6 = load double, ptr %DalphaDstrike, align 8, !tbaa !9
  %fneg4 = fneg double %6
  %strike_5 = getelementptr inbounds nuw %"class.QuantLib::BlackCalculator", ptr %this1, i32 0, i32 1
  %7 = load double, ptr %strike_5, align 8, !tbaa !11
  %div6 = fdiv double %fneg4, %7
  %d1_ = getelementptr inbounds nuw %"class.QuantLib::BlackCalculator", ptr %this1, i32 0, i32 6
  %8 = load double, ptr %d1_, align 8, !tbaa !25
  %stdDev_7 = getelementptr inbounds nuw %"class.QuantLib::BlackCalculator", ptr %this1, i32 0, i32 3
  %9 = load double, ptr %stdDev_7, align 8, !tbaa !14
  %div8 = fdiv double %8, %9
  %sub = fsub double 1.000000e+00, %div8
  %mul9 = fmul double %div6, %sub
  store double %mul9, ptr %D2alphaD2strike, align 8, !tbaa !9
  call void @llvm.lifetime.start.p0(i64 8, ptr %D2betaD2strike) #19
  %10 = load double, ptr %DbetaDstrike, align 8, !tbaa !9
  %fneg10 = fneg double %10
  %strike_11 = getelementptr inbounds nuw %"class.QuantLib::BlackCalculator", ptr %this1, i32 0, i32 1
  %11 = load double, ptr %strike_11, align 8, !tbaa !11
  %div12 = fdiv double %fneg10, %11
  %d2_ = getelementptr inbounds nuw %"class.QuantLib::BlackCalculator", ptr %this1, i32 0, i32 7
  %12 = load double, ptr %d2_, align 8, !tbaa !26
  %stdDev_13 = getelementptr inbounds nuw %"class.QuantLib::BlackCalculator", ptr %this1, i32 0, i32 3
  %13 = load double, ptr %stdDev_13, align 8, !tbaa !14
  %div14 = fdiv double %12, %13
  %sub15 = fsub double 1.000000e+00, %div14
  %mul16 = fmul double %div12, %sub15
  store double %mul16, ptr %D2betaD2strike, align 8, !tbaa !9
  call void @llvm.lifetime.start.p0(i64 8, ptr %temp2) #19
  %14 = load double, ptr %D2alphaD2strike, align 8, !tbaa !9
  %forward_ = getelementptr inbounds nuw %"class.QuantLib::BlackCalculator", ptr %this1, i32 0, i32 2
  %15 = load double, ptr %forward_, align 8, !tbaa !13
  %16 = load double, ptr %D2betaD2strike, align 8, !tbaa !9
  %x_ = getelementptr inbounds nuw %"class.QuantLib::BlackCalculator", ptr %this1, i32 0, i32 16
  %17 = load double, ptr %x_, align 8, !tbaa !33
  %mul18 = fmul double %16, %17
  %18 = call double @llvm.fmuladd.f64(double %14, double %15, double %mul18)
  %19 = load double, ptr %DbetaDstrike, align 8, !tbaa !9
  %mul19 = fmul double 2.000000e+00, %19
  %DxDstrike_ = getelementptr inbounds nuw %"class.QuantLib::BlackCalculator", ptr %this1, i32 0, i32 18
  %20 = load double, ptr %DxDstrike_, align 8, !tbaa !34
  %21 = call double @llvm.fmuladd.f64(double %mul19, double %20, double %18)
  store double %21, ptr %temp2, align 8, !tbaa !9
  %discount_ = getelementptr inbounds nuw %"class.QuantLib::BlackCalculator", ptr %this1, i32 0, i32 4
  %22 = load double, ptr %discount_, align 8, !tbaa !15
  %23 = load double, ptr %temp2, align 8, !tbaa !9
  %mul21 = fmul double %22, %23
  call void @llvm.lifetime.end.p0(i64 8, ptr %temp2) #19
  call void @llvm.lifetime.end.p0(i64 8, ptr %D2betaD2strike) #19
  call void @llvm.lifetime.end.p0(i64 8, ptr %D2alphaD2strike) #19
  call void @llvm.lifetime.end.p0(i64 8, ptr %DbetaDstrike) #19
  call void @llvm.lifetime.end.p0(i64 8, ptr %DalphaDstrike) #19
  call void @llvm.lifetime.end.p0(i64 8, ptr %temp) #19
  ret double %mul21
}