; Function Attrs: mustprogress nofree norecurse nosync nounwind willreturn memory(argmem: read) uwtable
define noundef double @_ZNK8QuantLib15BlackCalculator11strikeGammaEv(ptr nocapture noundef nonnull readonly align 8 dereferenceable(152) %this) local_unnamed_addr #17 align 2 {
entry:
  %stdDev_ = getelementptr inbounds nuw i8, ptr %this, i64 24
  %0 = load double, ptr %stdDev_, align 8, !tbaa !30
  %strike_ = getelementptr inbounds nuw i8, ptr %this, i64 8
  %1 = load double, ptr %strike_, align 8, !tbaa !27
  %mul = fmul double %0, %1
  %DalphaDd1_ = getelementptr inbounds nuw i8, ptr %this, i64 80
  %2 = load double, ptr %DalphaDd1_, align 8, !tbaa !56
  %DbetaDd2_ = getelementptr inbounds nuw i8, ptr %this, i64 88
  %3 = load double, ptr %DbetaDd2_, align 8, !tbaa !58
  %fneg2 = fneg double %3
  %div3 = fdiv double %fneg2, %mul
  %fneg4 = fdiv double %2, %mul
  %div6 = fdiv double %fneg4, %1
  %d1_ = getelementptr inbounds nuw i8, ptr %this, i64 48
  %4 = load double, ptr %d1_, align 8, !tbaa !33
  %div8 = fdiv double %4, %0
  %sub = fsub double 1.000000e+00, %div8
  %mul9 = fmul double %div6, %sub
  %fneg10 = fneg double %div3
  %div12 = fdiv double %fneg10, %1
  %d2_ = getelementptr inbounds nuw i8, ptr %this, i64 56
  %5 = load double, ptr %d2_, align 8, !tbaa !34
  %div14 = fdiv double %5, %0
  %sub15 = fsub double 1.000000e+00, %div14
  %mul16 = fmul double %div12, %sub15
  %forward_ = getelementptr inbounds nuw i8, ptr %this, i64 16
  %6 = load double, ptr %forward_, align 8, !tbaa !29
  %x_ = getelementptr inbounds nuw i8, ptr %this, i64 128
  %7 = load double, ptr %x_, align 8, !tbaa !51
  %mul18 = fmul double %7, %mul16
  %8 = tail call double @llvm.fmuladd.f64(double %mul9, double %6, double %mul18)
  %mul19 = fmul double %div3, 2.000000e+00
  %DxDstrike_ = getelementptr inbounds nuw i8, ptr %this, i64 144
  %9 = load double, ptr %DxDstrike_, align 8, !tbaa !52
  %10 = tail call double @llvm.fmuladd.f64(double %mul19, double %9, double %8)
  %discount_ = getelementptr inbounds nuw i8, ptr %this, i64 32
  %11 = load double, ptr %discount_, align 8, !tbaa !31
  %mul21 = fmul double %11, %10
  ret double %mul21
}